; Function Attrs: mustprogress uwtable
define void @_ZN7rocksdb17WriteCommittedTxn19CommitBatchInternalEPNS_10WriteBatchEm(ptr noalias sret(%"class.rocksdb::Status") align 8 %agg.result, ptr noundef nonnull align 8 dereferenceable(624) %this, ptr noundef %batch, i64 %0) unnamed_addr #3 align 2 personality ptr @__gxx_personality_v0 {
invoke.cont:
  %seq_used = alloca i64, align 8
  store i64 72057594037927935, ptr %seq_used, align 8
  %db_impl_ = getelementptr inbounds i8, ptr %this, i64 336
  %1 = load ptr, ptr %db_impl_, align 8
  %write_options_ = getelementptr inbounds i8, ptr %this, i64 80
  call void @_ZN7rocksdb6DBImpl9WriteImplERKNS_12WriteOptionsEPNS_10WriteBatchEPNS_13WriteCallbackEPmmbS8_mPNS_18PreReleaseCallbackEPNS_20PostMemTableCallbackE(ptr sret(%"class.rocksdb::Status") align 8 %agg.result, ptr noundef nonnull align 64 dereferenceable(6660) %1, ptr noundef nonnull align 8 dereferenceable(24) %write_options_, ptr noundef %batch, ptr noundef null, ptr noundef null, i64 noundef 0, i1 noundef zeroext false, ptr noundef nonnull %seq_used, i64 noundef 0, ptr noundef null, ptr noundef null)
  %2 = load i8, ptr %agg.result, align 8
  %cmp.i = icmp eq i8 %2, 0
  br i1 %cmp.i, label %if.then, label %nrvo.skipdtor

if.then:                                          ; preds = %invoke.cont
  %3 = load i64, ptr %seq_used, align 8
  %vtable = load ptr, ptr %this, align 8
  %vfn = getelementptr inbounds i8, ptr %vtable, i64 648
  %4 = load ptr, ptr %vfn, align 8
  invoke void %4(ptr noundef nonnull align 8 dereferenceable(64) %this, i64 noundef %3)
          to label %nrvo.skipdtor unwind label %lpad

lpad:                                             ; preds = %if.then
  %5 = landingpad { ptr, i32 }
          cleanup
  %state_.i = getelementptr inbounds i8, ptr %agg.result, i64 8
  %6 = load ptr, ptr %state_.i, align 8
  %cmp.not.i.i = icmp eq ptr %6, null
  br i1 %cmp.not.i.i, label %_ZN7rocksdb6StatusD2Ev.exit, label %_ZNKSt14default_deleteIA_KcEclIS0_EENSt9enable_ifIXsr14is_convertibleIPA_T_PS1_EE5valueEvE4typeEPS5_.exit.i.i

_ZNKSt14default_deleteIA_KcEclIS0_EENSt9enable_ifIXsr14is_convertibleIPA_T_PS1_EE5valueEvE4typeEPS5_.exit.i.i: ; preds = %lpad
  call void @_ZdaPv(ptr noundef nonnull %6) #21
  br label %_ZN7rocksdb6StatusD2Ev.exit

_ZN7rocksdb6StatusD2Ev.exit:                      ; preds = %lpad, %_ZNKSt14default_deleteIA_KcEclIS0_EENSt9enable_ifIXsr14is_convertibleIPA_T_PS1_EE5valueEvE4typeEPS5_.exit.i.i
  store ptr null, ptr %state_.i, align 8
  resume { ptr, i32 } %5

nrvo.skipdtor:                                    ; preds = %invoke.cont, %if.then
  ret void
}